target datalayout = "e-m:e-p270:32:32-p271:32:32-p272:64:64-i64:64-i128:128-f80:128-n8:16:32:64-S128"
target triple = "x86_64-unknown-linux-gnu"

%"class.proxygen::HPACKContext" = type <{ %"class.proxygen::HeaderTable", i32, [4 x i8] }>
%"class.proxygen::HeaderTable" = type { ptr, i32, i32, %"class.std::vector", i32, i32, i32, i8, %"class.folly::F14FastMap" }
%"class.std::vector" = type { %"struct.std::_Vector_base" }
%"struct.std::_Vector_base" = type { %"struct.std::_Vector_base<proxygen::HPACKHeader, std::allocator<proxygen::HPACKHeader>>::_Vector_impl" }
%"struct.std::_Vector_base<proxygen::HPACKHeader, std::allocator<proxygen::HPACKHeader>>::_Vector_impl" = type { %"struct.std::_Vector_base<proxygen::HPACKHeader, std::allocator<proxygen::HPACKHeader>>::_Vector_impl_data" }
%"struct.std::_Vector_base<proxygen::HPACKHeader, std::allocator<proxygen::HPACKHeader>>::_Vector_impl_data" = type { ptr, ptr, ptr }
%"class.folly::F14FastMap" = type { %"class.folly::f14::detail::F14VectorMapImpl" }
%"class.folly::f14::detail::F14VectorMapImpl" = type { %"class.folly::f14::detail::F14BasicMap" }
%"class.folly::f14::detail::F14BasicMap" = type { %"class.folly::f14::detail::F14Table" }
%"class.folly::f14::detail::F14Table" = type { %"class.folly::f14::detail::VectorContainerPolicy", ptr, %"struct.folly::f14::detail::SizeAndChunkShiftAndPackedBegin" }
%"class.folly::f14::detail::VectorContainerPolicy" = type { ptr }
%"struct.folly::f14::detail::SizeAndChunkShiftAndPackedBegin" = type { %"struct.folly::f14::detail::PackedSizeAndChunkShift" }
%"struct.folly::f14::detail::PackedSizeAndChunkShift" = type { i64 }

; Function Attrs: mustprogress nounwind uwtable
define linkonce_odr noundef i32 @_ZNK8proxygen11HeaderTable4sizeEv(ptr noundef nonnull align 8 dereferenceable(80) %this) #5 comdat align 2 {
entry:
  %this.addr = alloca ptr, align 8
  store ptr %this, ptr %this.addr, align 8
  %this1 = load ptr, ptr %this.addr, align 8
  %size_ = getelementptr inbounds %"class.proxygen::HeaderTable", ptr %this1, i32 0, i32 4
  %0 = load i32, ptr %size_, align 8
  ret i32 %0
}

; Function Attrs: mustprogress uwtable
define linkonce_odr noundef i32 @_ZNK8proxygen12HPACKContext20dynamicToGlobalIndexEj(ptr noundef nonnull align 8 dereferenceable(84) %this, i32 noundef %index) #4 comdat align 2 {
entry:
  %this.addr = alloca ptr, align 8
  %index.addr = alloca i32, align 4
  store ptr %this, ptr %this.addr, align 8
  store i32 %index, ptr %index.addr, align 4
  %this1 = load ptr, ptr %this.addr, align 8
  %0 = load i32, ptr %index.addr, align 4
  %call = call noundef nonnull align 8 dereferenceable(80) ptr @_ZNK8proxygen12HPACKContext14getStaticTableEv(ptr noundef nonnull align 8 dereferenceable(84) %this1)
  %call2 = call noundef i32 @_ZNK8proxygen11HeaderTable4sizeEv(ptr noundef nonnull align 8 dereferenceable(80) %call)
  %add = add i32 %0, %call2
  ret i32 %add
}

; Function Attrs: mustprogress nounwind uwtable
define linkonce_odr noundef i32 @_ZNK8proxygen12HPACKContext19staticToGlobalIndexEj(ptr noundef nonnull align 8 dereferenceable(84) %this, i32 noundef %index) #5 comdat align 2 {
entry:
  %this.addr = alloca ptr, align 8
  %index.addr = alloca i32, align 4
  store ptr %this, ptr %this.addr, align 8
  store i32 %index, ptr %index.addr, align 4
  %0 = load i32, ptr %index.addr, align 4
  ret i32 %0
}

; Function Attrs: mustprogress uwtable
define linkonce_odr noundef nonnull align 8 dereferenceable(80) ptr @_ZNK8proxygen12HPACKContext14getStaticTableEv(ptr noundef nonnull align 8 dereferenceable(84) %this) #4 comdat align 2 {
entry:
  %this.addr = alloca ptr, align 8
  store ptr %this, ptr %this.addr, align 8
  %call = call noundef nonnull align 8 dereferenceable(80) ptr @_ZN8proxygen17StaticHeaderTable3getEv()
  ret ptr %call
}

; Function Attrs: mustprogress uwtable
define noundef i32 @_ZNK8proxygen12HPACKContext9nameIndexERKNS_15HPACKHeaderNameE(ptr noundef nonnull align 8 dereferenceable(84) %this, ptr noundef nonnull align 8 dereferenceable(8) %headerName) #4 align 2 {
entry:
  %retval = alloca i32, align 4
  %this.addr = alloca ptr, align 8
  %headerName.addr = alloca ptr, align 8
  %index = alloca i32, align 4
  store ptr %this, ptr %this.addr, align 8
  store ptr %headerName, ptr %headerName.addr, align 8
  %this1 = load ptr, ptr %this.addr, align 8
  %call = call noundef nonnull align 8 dereferenceable(80) ptr @_ZNK8proxygen12HPACKContext14getStaticTableEv(ptr noundef nonnull align 8 dereferenceable(84) %this1)
  %0 = load ptr, ptr %headerName.addr, align 8
  %call2 = call noundef i32 @_ZNK8proxygen11HeaderTable9nameIndexERKNS_15HPACKHeaderNameE(ptr noundef nonnull align 8 dereferenceable(80) %call, ptr noundef nonnull align 8 dereferenceable(8) %0)
  store i32 %call2, ptr %index, align 4
  %1 = load i32, ptr %index, align 4
  %tobool = icmp ne i32 %1, 0
  br i1 %tobool, label %if.then, label %if.end

if.then:                                          ; preds = %entry
  %staticRefs_ = getelementptr inbounds %"class.proxygen::HPACKContext", ptr %this1, i32 0, i32 1
  %2 = load i32, ptr %staticRefs_, align 8
  %inc = add i32 %2, 1
  store i32 %inc, ptr %staticRefs_, align 8
  %3 = load i32, ptr %index, align 4
  %call3 = call noundef i32 @_ZNK8proxygen12HPACKContext19staticToGlobalIndexEj(ptr noundef nonnull align 8 dereferenceable(84) %this1, i32 noundef %3)
  store i32 %call3, ptr %retval, align 4
  br label %return

if.end:                                           ; preds = %entry
  %table_ = getelementptr inbounds %"class.proxygen::HPACKContext", ptr %this1, i32 0, i32 0
  %4 = load ptr, ptr %headerName.addr, align 8
  %call4 = call noundef i32 @_ZNK8proxygen11HeaderTable9nameIndexERKNS_15HPACKHeaderNameE(ptr noundef nonnull align 8 dereferenceable(80) %table_, ptr noundef nonnull align 8 dereferenceable(8) %4)
  store i32 %call4, ptr %index, align 4
  %5 = load i32, ptr %index, align 4
  %tobool5 = icmp ne i32 %5, 0
  br i1 %tobool5, label %if.then6, label %if.end8

if.then6:                                         ; preds = %if.end
  %6 = load i32, ptr %index, align 4
  %call7 = call noundef i32 @_ZNK8proxygen12HPACKContext20dynamicToGlobalIndexEj(ptr noundef nonnull align 8 dereferenceable(84) %this1, i32 noundef %6)
  store i32 %call7, ptr %retval, align 4
  br label %return

if.end8:                                          ; preds = %if.end
  store i32 0, ptr %retval, align 4
  br label %return

return:                                           ; preds = %if.end8, %if.then6, %if.then
  %7 = load i32, ptr %retval, align 4
  ret i32 %7
}