; Function Attrs: mustprogress uwtable
define noundef i32 @_ZNK8proxygen12HPACKContext9nameIndexERKNS_15HPACKHeaderNameE(ptr noundef nonnull align 8 dereferenceable(84) %this, ptr noundef nonnull align 8 dereferenceable(8) %headerName) local_unnamed_addr #3 align 2 {
entry:
  %call.i = tail call noundef nonnull align 8 dereferenceable(80) ptr @_ZN8proxygen17StaticHeaderTable3getEv()
  %call2 = tail call noundef i32 @_ZNK8proxygen11HeaderTable9nameIndexERKNS_15HPACKHeaderNameE(ptr noundef nonnull align 8 dereferenceable(80) %call.i, ptr noundef nonnull align 8 dereferenceable(8) %headerName)
  %tobool.not = icmp eq i32 %call2, 0
  br i1 %tobool.not, label %if.end, label %if.then

if.then:                                          ; preds = %entry
  %staticRefs_ = getelementptr inbounds i8, ptr %this, i64 80
  %0 = load i32, ptr %staticRefs_, align 8
  %inc = add i32 %0, 1
  store i32 %inc, ptr %staticRefs_, align 8
  br label %return

if.end:                                           ; preds = %entry
  %call4 = tail call noundef i32 @_ZNK8proxygen11HeaderTable9nameIndexERKNS_15HPACKHeaderNameE(ptr noundef nonnull align 8 dereferenceable(80) %this, ptr noundef nonnull align 8 dereferenceable(8) %headerName)
  %tobool5.not = icmp eq i32 %call4, 0
  br i1 %tobool5.not, label %return, label %if.then6

if.then6:                                         ; preds = %if.end
  %call.i.i = tail call noundef nonnull align 8 dereferenceable(80) ptr @_ZN8proxygen17StaticHeaderTable3getEv()
  %size_.i.i = getelementptr inbounds i8, ptr %call.i.i, i64 40
  %1 = load i32, ptr %size_.i.i, align 8
  %add.i = add i32 %1, %call4
  br label %return

return:                                           ; preds = %if.end, %if.then6, %if.then
  %retval.0 = phi i32 [ %call2, %if.then ], [ %add.i, %if.then6 ], [ 0, %if.end ]
  ret i32 %retval.0
}